target datalayout = "e-m:e-p270:32:32-p271:32:32-p272:64:64-i64:64-i128:128-f80:128-n8:16:32:64-S128"
target triple = "x86_64-pc-linux-gnu"

%"class.llvm::SmallVectorBase" = type { ptr, i32, i32 }
%"class.llvm::SlotIndex" = type { %"class.llvm::PointerIntPair.65" }
%"class.llvm::PointerIntPair.65" = type { %"struct.llvm::detail::PunnedPointer.66" }
%"struct.llvm::detail::PunnedPointer.66" = type { [8 x i8] }
%"class.llvm::ilist_node_base" = type { %"class.llvm::ilist_detail::node_base_prevnext" }
%"class.llvm::ilist_detail::node_base_prevnext" = type { ptr, ptr }
%"struct.llvm::LiveRange::Segment" = type { %"class.llvm::SlotIndex", %"class.llvm::SlotIndex", ptr }
%class.anon.308 = type { i8 }
%"class.llvm::LiveRange" = type { %"class.llvm::SmallVector.228", %"class.llvm::SmallVector.233", %"class.std::unique_ptr.238" }
%"class.llvm::SmallVector.228" = type { %"class.llvm::SmallVectorImpl.229", %"struct.llvm::SmallVectorStorage.232" }
%"class.llvm::SmallVectorImpl.229" = type { %"class.llvm::SmallVectorTemplateBase.230" }
%"class.llvm::SmallVectorTemplateBase.230" = type { %"class.llvm::SmallVectorTemplateCommon.231" }
%"class.llvm::SmallVectorTemplateCommon.231" = type { %"class.llvm::SmallVectorBase" }
%"struct.llvm::SmallVectorStorage.232" = type { [48 x i8] }
%"class.llvm::SmallVector.233" = type { %"class.llvm::SmallVectorImpl.234", %"struct.llvm::SmallVectorStorage.237" }
%"class.llvm::SmallVectorImpl.234" = type { %"class.llvm::SmallVectorTemplateBase.235" }
%"class.llvm::SmallVectorTemplateBase.235" = type { %"class.llvm::SmallVectorTemplateCommon.236" }
%"class.llvm::SmallVectorTemplateCommon.236" = type { %"class.llvm::SmallVectorBase" }
%"struct.llvm::SmallVectorStorage.237" = type { [16 x i8] }
%"class.std::unique_ptr.238" = type { %"struct.std::__uniq_ptr_data.239" }
%"struct.std::__uniq_ptr_data.239" = type { %"class.std::__uniq_ptr_impl.240" }
%"class.std::__uniq_ptr_impl.240" = type { %"class.std::tuple.241" }
%"class.std::tuple.241" = type { %"struct.std::_Tuple_impl.242" }
%"struct.std::_Tuple_impl.242" = type { %"struct.std::_Head_base.245" }
%"struct.std::_Head_base.245" = type { ptr }
%"class.llvm::IndexListEntry" = type <{ %"class.llvm::ilist_node.276", ptr, i32, [4 x i8] }>
%"class.llvm::ilist_node.276" = type { %"class.llvm::ilist_node_impl.277" }
%"class.llvm::ilist_node_impl.277" = type { %"class.llvm::ilist_node_base" }

; Function Attrs: mustprogress nounwind uwtable
define linkonce_odr hidden noundef ptr @_ZN4llvm21PointerLikeTypeTraitsIPNS_14IndexListEntryEE18getFromVoidPointerEPv(ptr noundef %0) #0 comdat align 2 {
  %2 = alloca ptr, align 8
  store ptr %0, ptr %2, align 8
  %3 = load ptr, ptr %2, align 8
  ret ptr %3
}

; Function Attrs: mustprogress nounwind uwtable
define linkonce_odr hidden noundef i64 @_ZNK4llvm6detail13PunnedPointerIPNS_14IndexListEntryEE5asIntEv(ptr noundef nonnull align 8 dereferenceable(8) %0) #0 comdat align 2 {
  %2 = alloca ptr, align 8
  %3 = alloca i64, align 8
  store ptr %0, ptr %2, align 8
  %4 = load ptr, ptr %2, align 8
  store i64 0, ptr %3, align 8
  %5 = getelementptr inbounds nuw %"struct.llvm::detail::PunnedPointer.66", ptr %4, i32 0, i32 0
  %6 = getelementptr inbounds [8 x i8], ptr %5, i64 0, i64 0
  call void @llvm.memcpy.p0.p0.i64(ptr align 8 %3, ptr align 8 %6, i64 8, i1 false)
  %7 = load i64, ptr %3, align 8
  ret i64 %7
}

; Function Attrs: mustprogress nounwind uwtable
define linkonce_odr hidden noundef i64 @_ZN4llvm18PointerIntPairInfoIPNS_14IndexListEntryELj2ENS_21PointerLikeTypeTraitsIS2_EEE6getIntEl(i64 noundef %0) #0 comdat align 2 {
  %2 = alloca i64, align 8
  store i64 %0, ptr %2, align 8
  %3 = load i64, ptr %2, align 8
  %4 = ashr i64 %3, 1
  %5 = and i64 %4, 3
  ret i64 %5
}

; Function Attrs: mustprogress nounwind uwtable
define linkonce_odr hidden noundef ptr @_ZN4llvm18PointerIntPairInfoIPNS_14IndexListEntryELj2ENS_21PointerLikeTypeTraitsIS2_EEE10getPointerEl(i64 noundef %0) #0 comdat align 2 {
  %2 = alloca i64, align 8
  store i64 %0, ptr %2, align 8
  %3 = load i64, ptr %2, align 8
  %4 = and i64 %3, -8
  %5 = inttoptr i64 %4 to ptr
  %6 = call noundef ptr @_ZN4llvm21PointerLikeTypeTraitsIPNS_14IndexListEntryEE18getFromVoidPointerEPv(ptr noundef %5)
  ret ptr %6
}

; Function Attrs: mustprogress nounwind uwtable
define linkonce_odr hidden noundef i64 @_ZNK4llvm6detail13PunnedPointerIPNS_14IndexListEntryEEcvlEv(ptr noundef nonnull align 8 dereferenceable(8) %0) #0 comdat align 2 {
  %2 = alloca ptr, align 8
  store ptr %0, ptr %2, align 8
  %3 = load ptr, ptr %2, align 8
  %4 = call noundef i64 @_ZNK4llvm6detail13PunnedPointerIPNS_14IndexListEntryEE5asIntEv(ptr noundef nonnull align 8 dereferenceable(8) %3)
  ret i64 %4
}

; Function Attrs: mustprogress nounwind uwtable
define linkonce_odr hidden noundef i32 @_ZNK4llvm14PointerIntPairIPNS_14IndexListEntryELj2EjNS_21PointerLikeTypeTraitsIS2_EENS_18PointerIntPairInfoIS2_Lj2ES4_EEE6getIntEv(ptr noundef nonnull align 8 dereferenceable(8) %0) #0 comdat align 2 {
  %2 = alloca ptr, align 8
  store ptr %0, ptr %2, align 8
  %3 = load ptr, ptr %2, align 8
  %4 = getelementptr inbounds nuw %"class.llvm::PointerIntPair.65", ptr %3, i32 0, i32 0
  %5 = call noundef i64 @_ZNK4llvm6detail13PunnedPointerIPNS_14IndexListEntryEEcvlEv(ptr noundef nonnull align 8 dereferenceable(8) %4)
  %6 = call noundef i64 @_ZN4llvm18PointerIntPairInfoIPNS_14IndexListEntryELj2ENS_21PointerLikeTypeTraitsIS2_EEE6getIntEl(i64 noundef %5)
  %7 = trunc i64 %6 to i32
  ret i32 %7
}

; Function Attrs: mustprogress nounwind uwtable
define linkonce_odr hidden noundef ptr @_ZNK4llvm14PointerIntPairIPNS_14IndexListEntryELj2EjNS_21PointerLikeTypeTraitsIS2_EENS_18PointerIntPairInfoIS2_Lj2ES4_EEE10getPointerEv(ptr noundef nonnull align 8 dereferenceable(8) %0) #0 comdat align 2 {
  %2 = alloca ptr, align 8
  store ptr %0, ptr %2, align 8
  %3 = load ptr, ptr %2, align 8
  %4 = getelementptr inbounds nuw %"class.llvm::PointerIntPair.65", ptr %3, i32 0, i32 0
  %5 = call noundef i64 @_ZNK4llvm6detail13PunnedPointerIPNS_14IndexListEntryEEcvlEv(ptr noundef nonnull align 8 dereferenceable(8) %4)
  %6 = call noundef ptr @_ZN4llvm18PointerIntPairInfoIPNS_14IndexListEntryELj2ENS_21PointerLikeTypeTraitsIS2_EEE10getPointerEl(i64 noundef %5)
  ret ptr %6
}

; Function Attrs: mustprogress nounwind uwtable
define linkonce_odr hidden noundef i32 @_ZNK4llvm9SlotIndex7getSlotEv(ptr noundef nonnull align 8 dereferenceable(8) %0) #0 comdat align 2 {
  %2 = alloca ptr, align 8
  store ptr %0, ptr %2, align 8
  %3 = load ptr, ptr %2, align 8
  %4 = getelementptr inbounds nuw %"class.llvm::SlotIndex", ptr %3, i32 0, i32 0
  %5 = call noundef i32 @_ZNK4llvm14PointerIntPairIPNS_14IndexListEntryELj2EjNS_21PointerLikeTypeTraitsIS2_EENS_18PointerIntPairInfoIS2_Lj2ES4_EEE6getIntEv(ptr noundef nonnull align 8 dereferenceable(8) %4)
  ret i32 %5
}

; Function Attrs: mustprogress nounwind uwtable
define linkonce_odr hidden noundef i32 @_ZNK4llvm14IndexListEntry8getIndexEv(ptr noundef nonnull align 8 dereferenceable(28) %0) #0 comdat align 2 {
  %2 = alloca ptr, align 8
  store ptr %0, ptr %2, align 8
  %3 = load ptr, ptr %2, align 8
  %4 = getelementptr inbounds nuw %"class.llvm::IndexListEntry", ptr %3, i32 0, i32 2
  %5 = load i32, ptr %4, align 8
  ret i32 %5
}

; Function Attrs: mustprogress nounwind uwtable
define linkonce_odr hidden noundef ptr @_ZNK4llvm9SlotIndex9listEntryEv(ptr noundef nonnull align 8 dereferenceable(8) %0) #0 comdat align 2 {
  %2 = alloca ptr, align 8
  store ptr %0, ptr %2, align 8
  %3 = load ptr, ptr %2, align 8
  %4 = getelementptr inbounds nuw %"class.llvm::SlotIndex", ptr %3, i32 0, i32 0
  %5 = call noundef ptr @_ZNK4llvm14PointerIntPairIPNS_14IndexListEntryELj2EjNS_21PointerLikeTypeTraitsIS2_EENS_18PointerIntPairInfoIS2_Lj2ES4_EEE10getPointerEv(ptr noundef nonnull align 8 dereferenceable(8) %4)
  ret ptr %5
}

; Function Attrs: mustprogress nounwind uwtable
define linkonce_odr hidden noundef ptr @_ZNK4llvm25SmallVectorTemplateCommonINS_9LiveRange7SegmentEvE5beginEv(ptr noundef nonnull align 8 dereferenceable(16) %0) #0 comdat align 2 {
  %2 = alloca ptr, align 8
  store ptr %0, ptr %2, align 8
  %3 = load ptr, ptr %2, align 8
  %4 = getelementptr inbounds nuw %"class.llvm::SmallVectorBase", ptr %3, i32 0, i32 0
  %5 = load ptr, ptr %4, align 8
  ret ptr %5
}

; Function Attrs: mustprogress nounwind uwtable
define linkonce_odr hidden noundef i32 @_ZNK4llvm9SlotIndex8getIndexEv(ptr noundef nonnull align 8 dereferenceable(8) %0) #0 comdat align 2 {
  %2 = alloca ptr, align 8
  store ptr %0, ptr %2, align 8
  %3 = load ptr, ptr %2, align 8
  %4 = call noundef ptr @_ZNK4llvm9SlotIndex9listEntryEv(ptr noundef nonnull align 8 dereferenceable(8) %3)
  %5 = call noundef i32 @_ZNK4llvm14IndexListEntry8getIndexEv(ptr noundef nonnull align 8 dereferenceable(28) %4)
  %6 = call noundef i32 @_ZNK4llvm9SlotIndex7getSlotEv(ptr noundef nonnull align 8 dereferenceable(8) %3)
  %7 = or i32 %5, %6
  ret i32 %7
}

; Function Attrs: mustprogress nounwind uwtable
define linkonce_odr hidden noundef ptr @_ZNK4llvm25SmallVectorTemplateCommonINS_9LiveRange7SegmentEvE3endEv(ptr noundef nonnull align 8 dereferenceable(16) %0) #0 comdat align 2 {
  %2 = alloca ptr, align 8
  store ptr %0, ptr %2, align 8
  %3 = load ptr, ptr %2, align 8
  %4 = call noundef ptr @_ZNK4llvm25SmallVectorTemplateCommonINS_9LiveRange7SegmentEvE5beginEv(ptr noundef nonnull align 8 dereferenceable(16) %3)
  %5 = call noundef i64 @_ZNK4llvm15SmallVectorBaseIjE4sizeEv(ptr noundef nonnull align 8 dereferenceable(16) %3)
  %6 = getelementptr inbounds %"struct.llvm::LiveRange::Segment", ptr %4, i64 %5
  ret ptr %6
}

; Function Attrs: mustprogress nounwind uwtable
define linkonce_odr hidden noundef zeroext i1 @_ZNK4llvm9SlotIndexleES0_(ptr noundef nonnull align 8 dereferenceable(8) %0, i64 %1) #0 comdat align 2 {
  %3 = alloca %"class.llvm::SlotIndex", align 8
  %4 = alloca ptr, align 8
  %5 = getelementptr inbounds nuw %"class.llvm::SlotIndex", ptr %3, i32 0, i32 0
  %6 = getelementptr inbounds nuw %"class.llvm::PointerIntPair.65", ptr %5, i32 0, i32 0
  %7 = getelementptr inbounds nuw %"struct.llvm::detail::PunnedPointer.66", ptr %6, i32 0, i32 0
  store i64 %1, ptr %7, align 8
  store ptr %0, ptr %4, align 8
  %8 = load ptr, ptr %4, align 8
  %9 = call noundef i32 @_ZNK4llvm9SlotIndex8getIndexEv(ptr noundef nonnull align 8 dereferenceable(8) %8)
  %10 = call noundef i32 @_ZNK4llvm9SlotIndex8getIndexEv(ptr noundef nonnull align 8 dereferenceable(8) %3)
  %11 = icmp ule i32 %9, %10
  ret i1 %11
}

; Function Attrs: mustprogress nounwind uwtable
define linkonce_odr hidden noundef ptr @_ZNK4llvm9LiveRange3endEv(ptr noundef nonnull align 8 dereferenceable(104) %0) #0 comdat align 2 {
  %2 = alloca ptr, align 8
  store ptr %0, ptr %2, align 8
  %3 = load ptr, ptr %2, align 8
  %4 = getelementptr inbounds nuw %"class.llvm::LiveRange", ptr %3, i32 0, i32 0
  %5 = call noundef ptr @_ZNK4llvm25SmallVectorTemplateCommonINS_9LiveRange7SegmentEvE3endEv(ptr noundef nonnull align 8 dereferenceable(16) %4)
  ret ptr %5
}

; Function Attrs: mustprogress nounwind uwtable
define linkonce_odr hidden noundef ptr @_ZNK4llvm9LiveRange4findENS_9SlotIndexE(ptr noundef nonnull align 8 dereferenceable(104) %0, i64 %1) #0 comdat align 2 {
  %3 = alloca %"class.llvm::SlotIndex", align 8
  %4 = alloca ptr, align 8
  %5 = alloca %"class.llvm::SlotIndex", align 8
  %6 = getelementptr inbounds nuw %"class.llvm::SlotIndex", ptr %3, i32 0, i32 0
  %7 = getelementptr inbounds nuw %"class.llvm::PointerIntPair.65", ptr %6, i32 0, i32 0
  %8 = getelementptr inbounds nuw %"struct.llvm::detail::PunnedPointer.66", ptr %7, i32 0, i32 0
  store i64 %1, ptr %8, align 8
  store ptr %0, ptr %4, align 8
  %9 = load ptr, ptr %4, align 8
  call void @llvm.memcpy.p0.p0.i64(ptr align 8 %5, ptr align 8 %3, i64 8, i1 false)
  %10 = getelementptr inbounds nuw %"class.llvm::SlotIndex", ptr %5, i32 0, i32 0
  %11 = getelementptr inbounds nuw %"class.llvm::PointerIntPair.65", ptr %10, i32 0, i32 0
  %12 = getelementptr inbounds nuw %"struct.llvm::detail::PunnedPointer.66", ptr %11, i32 0, i32 0
  %13 = load i64, ptr %12, align 8
  %14 = call noundef ptr @_ZN4llvm9LiveRange4findENS_9SlotIndexE(ptr noundef nonnull align 8 dereferenceable(104) %9, i64 %13)
  ret ptr %14
}

; Function Attrs: mustprogress nounwind uwtable
define linkonce_odr hidden noundef zeroext i1 @_ZNK4llvm9LiveRange6liveAtENS_9SlotIndexE(ptr noundef nonnull align 8 dereferenceable(104) %0, i64 %1) #0 comdat align 2 {
  %3 = alloca %"class.llvm::SlotIndex", align 8
  %4 = alloca ptr, align 8
  %5 = alloca ptr, align 8
  %6 = alloca %"class.llvm::SlotIndex", align 8
  %7 = alloca %"class.llvm::SlotIndex", align 8
  %8 = getelementptr inbounds nuw %"class.llvm::SlotIndex", ptr %3, i32 0, i32 0
  %9 = getelementptr inbounds nuw %"class.llvm::PointerIntPair.65", ptr %8, i32 0, i32 0
  %10 = getelementptr inbounds nuw %"struct.llvm::detail::PunnedPointer.66", ptr %9, i32 0, i32 0
  store i64 %1, ptr %10, align 8
  store ptr %0, ptr %4, align 8
  %11 = load ptr, ptr %4, align 8
  call void @llvm.memcpy.p0.p0.i64(ptr align 8 %6, ptr align 8 %3, i64 8, i1 false)
  %12 = getelementptr inbounds nuw %"class.llvm::SlotIndex", ptr %6, i32 0, i32 0
  %13 = getelementptr inbounds nuw %"class.llvm::PointerIntPair.65", ptr %12, i32 0, i32 0
  %14 = getelementptr inbounds nuw %"struct.llvm::detail::PunnedPointer.66", ptr %13, i32 0, i32 0
  %15 = load i64, ptr %14, align 8
  %16 = call noundef ptr @_ZNK4llvm9LiveRange4findENS_9SlotIndexE(ptr noundef nonnull align 8 dereferenceable(104) %11, i64 %15)
  store ptr %16, ptr %5, align 8
  %17 = load ptr, ptr %5, align 8
  %18 = call noundef ptr @_ZNK4llvm9LiveRange3endEv(ptr noundef nonnull align 8 dereferenceable(104) %11)
  %19 = icmp ne ptr %17, %18
  br i1 %19, label %20, label %28

20:                                               ; preds = %2
  %21 = load ptr, ptr %5, align 8
  %22 = getelementptr inbounds nuw %"struct.llvm::LiveRange::Segment", ptr %21, i32 0, i32 0
  call void @llvm.memcpy.p0.p0.i64(ptr align 8 %7, ptr align 8 %3, i64 8, i1 false)
  %23 = getelementptr inbounds nuw %"class.llvm::SlotIndex", ptr %7, i32 0, i32 0
  %24 = getelementptr inbounds nuw %"class.llvm::PointerIntPair.65", ptr %23, i32 0, i32 0
  %25 = getelementptr inbounds nuw %"struct.llvm::detail::PunnedPointer.66", ptr %24, i32 0, i32 0
  %26 = load i64, ptr %25, align 8
  %27 = call noundef zeroext i1 @_ZNK4llvm9SlotIndexleES0_(ptr noundef nonnull align 8 dereferenceable(8) %22, i64 %26)
  br label %28

28:                                               ; preds = %20, %2
  %29 = phi i1 [ false, %2 ], [ %27, %20 ]
  ret i1 %29
}

; Function Attrs: mustprogress nounwind uwtable
define internal noundef zeroext i1 @"_ZZL14getLiveLanesAtRKN4llvm13LiveIntervalsERKNS_19MachineRegisterInfoEbNS_8RegisterENS_9SlotIndexEENK3$_0clERKNS_9LiveRangeES7_"(ptr noundef nonnull align 1 dereferenceable(1) %0, ptr noundef nonnull align 8 dereferenceable(104) %1, i64 %2) #0 align 2 {
  %4 = alloca %"class.llvm::SlotIndex", align 8
  %5 = alloca ptr, align 8
  %6 = alloca ptr, align 8
  %7 = alloca %"class.llvm::SlotIndex", align 8
  %8 = getelementptr inbounds nuw %"class.llvm::SlotIndex", ptr %4, i32 0, i32 0
  %9 = getelementptr inbounds nuw %"class.llvm::PointerIntPair.65", ptr %8, i32 0, i32 0
  %10 = getelementptr inbounds nuw %"struct.llvm::detail::PunnedPointer.66", ptr %9, i32 0, i32 0
  store i64 %2, ptr %10, align 8
  store ptr %0, ptr %5, align 8
  store ptr %1, ptr %6, align 8
  %11 = load ptr, ptr %6, align 8
  call void @llvm.memcpy.p0.p0.i64(ptr align 8 %7, ptr align 8 %4, i64 8, i1 false)
  %12 = getelementptr inbounds nuw %"class.llvm::SlotIndex", ptr %7, i32 0, i32 0
  %13 = getelementptr inbounds nuw %"class.llvm::PointerIntPair.65", ptr %12, i32 0, i32 0
  %14 = getelementptr inbounds nuw %"struct.llvm::detail::PunnedPointer.66", ptr %13, i32 0, i32 0
  %15 = load i64, ptr %14, align 8
  %16 = call noundef zeroext i1 @_ZNK4llvm9LiveRange6liveAtENS_9SlotIndexE(ptr noundef nonnull align 8 dereferenceable(104) %11, i64 %15)
  ret i1 %16
}

; Function Attrs: mustprogress nounwind uwtable
define internal noundef zeroext i1 @"_ZZL14getLiveLanesAtRKN4llvm13LiveIntervalsERKNS_19MachineRegisterInfoEbNS_8RegisterENS_9SlotIndexEEN3$_08__invokeERKNS_9LiveRangeES7_"(ptr noundef nonnull align 8 dereferenceable(104) %0, i64 %1) #0 align 2 {
  %3 = alloca %"class.llvm::SlotIndex", align 8
  %4 = alloca ptr, align 8
  %5 = alloca %class.anon.308, align 1
  %6 = getelementptr inbounds nuw %"class.llvm::SlotIndex", ptr %3, i32 0, i32 0
  %7 = getelementptr inbounds nuw %"class.llvm::PointerIntPair.65", ptr %6, i32 0, i32 0
  %8 = getelementptr inbounds nuw %"struct.llvm::detail::PunnedPointer.66", ptr %7, i32 0, i32 0
  store i64 %1, ptr %8, align 8
  store ptr %0, ptr %4, align 8
  %9 = load ptr, ptr %4, align 8
  %10 = getelementptr inbounds nuw %"class.llvm::SlotIndex", ptr %3, i32 0, i32 0
  %11 = getelementptr inbounds nuw %"class.llvm::PointerIntPair.65", ptr %10, i32 0, i32 0
  %12 = getelementptr inbounds nuw %"struct.llvm::detail::PunnedPointer.66", ptr %11, i32 0, i32 0
  %13 = load i64, ptr %12, align 8
  %14 = call noundef zeroext i1 @"_ZZL14getLiveLanesAtRKN4llvm13LiveIntervalsERKNS_19MachineRegisterInfoEbNS_8RegisterENS_9SlotIndexEENK3$_0clERKNS_9LiveRangeES7_"(ptr noundef nonnull align 1 dereferenceable(1) %5, ptr noundef nonnull align 8 dereferenceable(104) %9, i64 %13)
  ret i1 %14
}