; Function Attrs: mustprogress nounwind uwtable
define internal noundef zeroext i1 @"_ZZL14getLiveLanesAtRKN4llvm13LiveIntervalsERKNS_19MachineRegisterInfoEbNS_8RegisterENS_9SlotIndexEEN3$_08__invokeERKNS_9LiveRangeES7_"(ptr noundef nonnull align 8 dereferenceable(104) %0, i64 %1) #0 align 2 {
  %3 = tail call noundef ptr @_ZN4llvm9LiveRange4findENS_9SlotIndexE(ptr noundef nonnull align 8 dereferenceable(104) %0, i64 %1) #14
  %4 = load ptr, ptr %0, align 8
  %5 = tail call noundef i64 @_ZNK4llvm15SmallVectorBaseIjE4sizeEv(ptr noundef nonnull align 8 dereferenceable(16) %0) #14
  %6 = getelementptr inbounds %"struct.llvm::LiveRange::Segment", ptr %4, i64 %5
  %.not.i.i = icmp eq ptr %3, %6
  br i1 %.not.i.i, label %"_ZZL14getLiveLanesAtRKN4llvm13LiveIntervalsERKNS_19MachineRegisterInfoEbNS_8RegisterENS_9SlotIndexEENK3$_0clERKNS_9LiveRangeES7_.exit", label %7

7:                                                ; preds = %2
  %.0.copyload.i.i.i.i.i.i.i.i = load i64, ptr %3, align 8
  %8 = and i64 %.0.copyload.i.i.i.i.i.i.i.i, -8
  %9 = inttoptr i64 %8 to ptr
  %10 = getelementptr inbounds nuw i8, ptr %9, i64 24
  %11 = load i32, ptr %10, align 8
  %12 = trunc i64 %.0.copyload.i.i.i.i.i.i.i.i to i32
  %13 = lshr i32 %12, 1
  %14 = and i32 %13, 3
  %15 = or i32 %14, %11
  %16 = and i64 %1, -8
  %17 = inttoptr i64 %16 to ptr
  %18 = getelementptr inbounds nuw i8, ptr %17, i64 24
  %19 = load i32, ptr %18, align 8
  %20 = trunc i64 %1 to i32
  %21 = lshr i32 %20, 1
  %22 = and i32 %21, 3
  %23 = or i32 %19, %22
  %24 = icmp ule i32 %15, %23
  br label %"_ZZL14getLiveLanesAtRKN4llvm13LiveIntervalsERKNS_19MachineRegisterInfoEbNS_8RegisterENS_9SlotIndexEENK3$_0clERKNS_9LiveRangeES7_.exit"

"_ZZL14getLiveLanesAtRKN4llvm13LiveIntervalsERKNS_19MachineRegisterInfoEbNS_8RegisterENS_9SlotIndexEENK3$_0clERKNS_9LiveRangeES7_.exit": ; preds = %2, %7
  %25 = phi i1 [ false, %2 ], [ %24, %7 ]
  ret i1 %25
}